; Function Attrs: mustprogress uwtable
define i32 @SolveAllChunks(ptr noundef %0, ptr noundef %1, i32 noundef %2) local_unnamed_addr #3 {
  %4 = icmp slt i32 %2, 1
  br i1 %4, label %7, label %5

5:                                                ; preds = %3
  %6 = tail call i32 @SolveAllBoards(ptr noundef %0, ptr noundef %1)
  br label %7

7:                                                ; preds = %3, %5
  %.0 = phi i32 [ %6, %5 ], [ -301, %3 ]
  ret i32 %.0
}